target datalayout = "e-m:e-p270:32:32-p271:32:32-p272:64:64-i64:64-i128:128-f80:128-n8:16:32:64-S128"
target triple = "x86_64-pc-linux-gnu"

%struct.H5D_chunk_rec_t = type { [33 x i64], i32, i32, i64 }
%struct.H5D_chunk_it_ud4_t = type { ptr, i8, i32, ptr }

@H5D_init_g = external global i8, align 1
@H5_libterm_g = external global i8, align 1
@.str.177 = private unnamed_addr constant [63 x i8] c"           Flags    Bytes     Address          Logical Offset\0A\00", align 1
@.str.178 = private unnamed_addr constant [71 x i8] c"        ========== ======== ========== ==============================\0A\00", align 1
@.str.179 = private unnamed_addr constant [27 x i8] c"        0x%08x %8u %10lu [\00", align 1
@.str.180 = private unnamed_addr constant [6 x i8] c"%s%lu\00", align 1
@.str.181 = private unnamed_addr constant [3 x i8] c", \00", align 1
@.str.182 = private unnamed_addr constant [1 x i8] zeroinitializer, align 1
@.str.183 = private unnamed_addr constant [3 x i8] c"]\0A\00", align 1

; Function Attrs: nounwind uwtable
define internal i32 @H5D__chunk_dump_index_cb(ptr noundef %0, ptr noundef %1) #0 {
  %3 = alloca ptr, align 8
  %4 = alloca ptr, align 8
  %5 = alloca ptr, align 8
  %6 = alloca i32, align 4
  store ptr %0, ptr %3, align 8, !tbaa !259
  store ptr %1, ptr %4, align 8, !tbaa !154
  call void @llvm.lifetime.start.p0(i64 8, ptr %5) #10
  %7 = load ptr, ptr %4, align 8, !tbaa !154
  store ptr %7, ptr %5, align 8, !tbaa !385
  %8 = load i8, ptr @H5D_init_g, align 1, !tbaa !12, !range !14, !noundef !15
  %9 = trunc i8 %8 to i1
  br i1 %9, label %14, label %10

10:                                               ; preds = %2
  %11 = load i8, ptr @H5_libterm_g, align 1, !tbaa !12, !range !14, !noundef !15
  %12 = trunc i8 %11 to i1
  %13 = xor i1 %12, true
  br label %14

14:                                               ; preds = %10, %2
  %15 = phi i1 [ true, %2 ], [ %13, %10 ]
  %16 = xor i1 %15, true
  %17 = xor i1 %16, true
  %18 = zext i1 %17 to i32
  %19 = sext i32 %18 to i64
  %20 = call i64 @llvm.expect.i64(i64 %19, i64 1)
  %21 = icmp ne i64 %20, 0
  br i1 %21, label %22, label %95

22:                                               ; preds = %14
  %23 = load ptr, ptr %5, align 8, !tbaa !385
  %24 = getelementptr inbounds nuw %struct.H5D_chunk_it_ud4_t, ptr %23, i32 0, i32 0
  %25 = load ptr, ptr %24, align 8, !tbaa !380
  %26 = icmp ne ptr %25, null
  br i1 %26, label %27, label %94

27:                                               ; preds = %22
  call void @llvm.lifetime.start.p0(i64 4, ptr %6) #10
  %28 = load ptr, ptr %5, align 8, !tbaa !385
  %29 = getelementptr inbounds nuw %struct.H5D_chunk_it_ud4_t, ptr %28, i32 0, i32 1
  %30 = load i8, ptr %29, align 8, !tbaa !382, !range !14, !noundef !15
  %31 = trunc i8 %30 to i1
  br i1 %31, label %43, label %32

32:                                               ; preds = %27
  %33 = load ptr, ptr %5, align 8, !tbaa !385
  %34 = getelementptr inbounds nuw %struct.H5D_chunk_it_ud4_t, ptr %33, i32 0, i32 0
  %35 = load ptr, ptr %34, align 8, !tbaa !380
  %36 = call i32 (ptr, ptr, ...) @fprintf(ptr noundef %35, ptr noundef @.str.177) #10
  %37 = load ptr, ptr %5, align 8, !tbaa !385
  %38 = getelementptr inbounds nuw %struct.H5D_chunk_it_ud4_t, ptr %37, i32 0, i32 0
  %39 = load ptr, ptr %38, align 8, !tbaa !380
  %40 = call i32 (ptr, ptr, ...) @fprintf(ptr noundef %39, ptr noundef @.str.178) #10
  %41 = load ptr, ptr %5, align 8, !tbaa !385
  %42 = getelementptr inbounds nuw %struct.H5D_chunk_it_ud4_t, ptr %41, i32 0, i32 1
  store i8 1, ptr %42, align 8, !tbaa !382
  br label %43

43:                                               ; preds = %32, %27
  %44 = load ptr, ptr %5, align 8, !tbaa !385
  %45 = getelementptr inbounds nuw %struct.H5D_chunk_it_ud4_t, ptr %44, i32 0, i32 0
  %46 = load ptr, ptr %45, align 8, !tbaa !380
  %47 = load ptr, ptr %3, align 8, !tbaa !259
  %48 = getelementptr inbounds nuw %struct.H5D_chunk_rec_t, ptr %47, i32 0, i32 2
  %49 = load i32, ptr %48, align 4, !tbaa !360
  %50 = load ptr, ptr %3, align 8, !tbaa !259
  %51 = getelementptr inbounds nuw %struct.H5D_chunk_rec_t, ptr %50, i32 0, i32 1
  %52 = load i32, ptr %51, align 8, !tbaa !261
  %53 = load ptr, ptr %3, align 8, !tbaa !259
  %54 = getelementptr inbounds nuw %struct.H5D_chunk_rec_t, ptr %53, i32 0, i32 3
  %55 = load i64, ptr %54, align 8, !tbaa !361
  %56 = call i32 (ptr, ptr, ...) @fprintf(ptr noundef %46, ptr noundef @.str.179, i32 noundef %49, i32 noundef %52, i64 noundef %55) #10
  store i32 0, ptr %6, align 4, !tbaa !10
  br label %57

57:                                               ; preds = %86, %43
  %58 = load i32, ptr %6, align 4, !tbaa !10
  %59 = load ptr, ptr %5, align 8, !tbaa !385
  %60 = getelementptr inbounds nuw %struct.H5D_chunk_it_ud4_t, ptr %59, i32 0, i32 2
  %61 = load i32, ptr %60, align 4, !tbaa !383
  %62 = icmp ult i32 %58, %61
  br i1 %62, label %63, label %89

63:                                               ; preds = %57
  %64 = load ptr, ptr %5, align 8, !tbaa !385
  %65 = getelementptr inbounds nuw %struct.H5D_chunk_it_ud4_t, ptr %64, i32 0, i32 0
  %66 = load ptr, ptr %65, align 8, !tbaa !380
  %67 = load i32, ptr %6, align 4, !tbaa !10
  %68 = icmp ne i32 %67, 0
  %69 = select i1 %68, ptr @.str.181, ptr @.str.182
  %70 = load ptr, ptr %3, align 8, !tbaa !259
  %71 = getelementptr inbounds nuw %struct.H5D_chunk_rec_t, ptr %70, i32 0, i32 0
  %72 = load i32, ptr %6, align 4, !tbaa !10
  %73 = zext i32 %72 to i64
  %74 = getelementptr inbounds nuw [33 x i64], ptr %71, i64 0, i64 %73
  %75 = load i64, ptr %74, align 8, !tbaa !24
  %76 = load ptr, ptr %5, align 8, !tbaa !385
  %77 = getelementptr inbounds nuw %struct.H5D_chunk_it_ud4_t, ptr %76, i32 0, i32 3
  %78 = load ptr, ptr %77, align 8, !tbaa !384
  %79 = load i32, ptr %6, align 4, !tbaa !10
  %80 = zext i32 %79 to i64
  %81 = getelementptr inbounds nuw i32, ptr %78, i64 %80
  %82 = load i32, ptr %81, align 4, !tbaa !10
  %83 = zext i32 %82 to i64
  %84 = mul i64 %75, %83
  %85 = call i32 (ptr, ptr, ...) @fprintf(ptr noundef %66, ptr noundef @.str.180, ptr noundef %69, i64 noundef %84) #10
  br label %86

86:                                               ; preds = %63
  %87 = load i32, ptr %6, align 4, !tbaa !10
  %88 = add i32 %87, 1
  store i32 %88, ptr %6, align 4, !tbaa !10
  br label %57, !llvm.loop !387

89:                                               ; preds = %57
  %90 = load ptr, ptr %5, align 8, !tbaa !385
  %91 = getelementptr inbounds nuw %struct.H5D_chunk_it_ud4_t, ptr %90, i32 0, i32 0
  %92 = load ptr, ptr %91, align 8, !tbaa !380
  %93 = call i32 @fputs(ptr noundef @.str.183, ptr noundef %92)
  call void @llvm.lifetime.end.p0(i64 4, ptr %6) #10
  br label %94

94:                                               ; preds = %89, %22
  br label %95

95:                                               ; preds = %94, %14
  call void @llvm.lifetime.end.p0(i64 8, ptr %5) #10
  ret i32 0
}