; Function Attrs: nofree nounwind uwtable
define internal noundef i32 @H5D__chunk_dump_index_cb(ptr noundef readonly captures(none) %0, ptr noundef captures(none) %1) #9 {
  %3 = load i8, ptr @H5D_init_g, align 1, !tbaa !3, !range !7, !noundef !8
  %4 = trunc nuw i8 %3 to i1
  %5 = load i8, ptr @H5_libterm_g, align 1, !range !7
  %6 = trunc nuw i8 %5 to i1
  %7 = xor i1 %6, true
  %8 = select i1 %4, i1 true, i1 %7
  br i1 %8, label %9, label %47, !prof !9

9:                                                ; preds = %2
  %10 = load ptr, ptr %1, align 8, !tbaa !357
  %.not = icmp eq ptr %10, null
  br i1 %.not, label %47, label %11

11:                                               ; preds = %9
  %12 = getelementptr inbounds nuw i8, ptr %1, i64 8
  %13 = load i8, ptr %12, align 8, !tbaa !361, !range !7, !noundef !8
  %14 = trunc nuw i8 %13 to i1
  br i1 %14, label %19, label %15

15:                                               ; preds = %11
  %16 = tail call i64 @fwrite(ptr nonnull @.str.177, i64 62, i64 1, ptr nonnull %10)
  %17 = load ptr, ptr %1, align 8, !tbaa !357
  %18 = tail call i64 @fwrite(ptr nonnull @.str.178, i64 70, i64 1, ptr %17)
  store i8 1, ptr %12, align 8, !tbaa !361
  %.pre = load ptr, ptr %1, align 8, !tbaa !357
  br label %19

19:                                               ; preds = %15, %11
  %20 = phi ptr [ %.pre, %15 ], [ %10, %11 ]
  %21 = getelementptr inbounds nuw i8, ptr %0, i64 268
  %22 = load i32, ptr %21, align 4, !tbaa !346
  %23 = getelementptr inbounds nuw i8, ptr %0, i64 264
  %24 = load i32, ptr %23, align 8, !tbaa !253
  %25 = getelementptr inbounds nuw i8, ptr %0, i64 272
  %26 = load i64, ptr %25, align 8, !tbaa !347
  %27 = tail call i32 (ptr, ptr, ...) @fprintf(ptr noundef %20, ptr noundef nonnull @.str.179, i32 noundef %22, i32 noundef %24, i64 noundef %26) #15
  %28 = getelementptr inbounds nuw i8, ptr %1, i64 12
  %29 = load i32, ptr %28, align 4, !tbaa !362
  %.not22 = icmp eq i32 %29, 0
  br i1 %.not22, label %._crit_edge, label %.lr.ph

.lr.ph:                                           ; preds = %19
  %30 = getelementptr inbounds nuw i8, ptr %1, i64 16
  br label %31

31:                                               ; preds = %.lr.ph, %31
  %indvars.iv = phi i64 [ 0, %.lr.ph ], [ %indvars.iv.next, %31 ]
  %32 = load ptr, ptr %1, align 8, !tbaa !357
  %.not20 = icmp eq i64 %indvars.iv, 0
  %33 = select i1 %.not20, ptr @.str.182, ptr @.str.181
  %34 = getelementptr inbounds nuw [33 x i64], ptr %0, i64 0, i64 %indvars.iv
  %35 = load i64, ptr %34, align 8, !tbaa !21
  %36 = load ptr, ptr %30, align 8, !tbaa !363
  %37 = getelementptr inbounds nuw i32, ptr %36, i64 %indvars.iv
  %38 = load i32, ptr %37, align 4, !tbaa !62
  %39 = zext i32 %38 to i64
  %40 = mul i64 %35, %39
  %41 = tail call i32 (ptr, ptr, ...) @fprintf(ptr noundef %32, ptr noundef nonnull @.str.180, ptr noundef nonnull %33, i64 noundef %40) #15
  %indvars.iv.next = add nuw nsw i64 %indvars.iv, 1
  %42 = load i32, ptr %28, align 4, !tbaa !362
  %43 = zext i32 %42 to i64
  %44 = icmp samesign ult i64 %indvars.iv.next, %43
  br i1 %44, label %31, label %._crit_edge, !llvm.loop !364

._crit_edge:                                      ; preds = %31, %19
  %45 = load ptr, ptr %1, align 8, !tbaa !357
  %46 = tail call i64 @fwrite(ptr nonnull @.str.183, i64 2, i64 1, ptr %45)
  br label %47

47:                                               ; preds = %9, %._crit_edge, %2
  ret i32 0
}